; ModuleID = '4/18.c'
source_filename = "4/18.c"
target datalayout = "e-m:e-p270:32:32-p271:32:32-p272:64:64-i64:64-f80:128-n8:16:32:64-S128"
target triple = "x86_64-pc-linux-gnu"

@.str = private unnamed_addr constant [6 x i8] c"%d %d\00", align 1
@.str.1 = private unnamed_addr constant [3 x i8] c"%d\00", align 1
@.str.2 = private unnamed_addr constant [4 x i8] c"%d\0A\00", align 1

; Function Attrs: noinline nounwind uwtable
define dso_local void @main() #0 {
  %1 = alloca [100 x [100 x i32**]], align 16
  %2 = alloca i32, align 4
  %3 = alloca i32, align 4
  %4 = alloca i32, align 4
  %5 = alloca i32, align 4
  %6 = alloca i32, align 4
  %7 = alloca i32, align 4
  %8 = call i32 (i8*, ...) @__isoc99_scanf(i8* getelementptr inbounds ([6 x i8], [6 x i8]* @.str, i64 0, i64 0), i32* %5, i32* %4)
  store i32 0, i32* %2, align 4
  br label %9

9:                                                ; preds = %29, %0
  %10 = load i32, i32* %2, align 4
  %11 = icmp slt i32 %10, 100
  br i1 %11, label %12, label %32

12:                                               ; preds = %9
  store i32 0, i32* %3, align 4
  br label %13

13:                                               ; preds = %25, %12
  %14 = load i32, i32* %3, align 4
  %15 = icmp slt i32 %14, 100
  br i1 %15, label %16, label %28

16:                                               ; preds = %13
  %17 = call noalias i8* @malloc(i64 10000) #3
  %18 = bitcast i8* %17 to i32**
  %19 = load i32, i32* %2, align 4
  %20 = sext i32 %19 to i64
  %21 = getelementptr inbounds [100 x [100 x i32**]], [100 x [100 x i32**]]* %1, i64 0, i64 %20
  %22 = load i32, i32* %3, align 4
  %23 = sext i32 %22 to i64
  %24 = getelementptr inbounds [100 x i32**], [100 x i32**]* %21, i64 0, i64 %23
  store i32** %18, i32*** %24, align 8
  br label %25

25:                                               ; preds = %16
  %26 = load i32, i32* %3, align 4
  %27 = add nsw i32 %26, 1
  store i32 %27, i32* %3, align 4
  br label %13

28:                                               ; preds = %13
  br label %29

29:                                               ; preds = %28
  %30 = load i32, i32* %2, align 4
  %31 = add nsw i32 %30, 1
  store i32 %31, i32* %2, align 4
  br label %9

32:                                               ; preds = %9
  store i32 0, i32* %2, align 4
  br label %33

33:                                               ; preds = %55, %32
  %34 = load i32, i32* %2, align 4
  %35 = load i32, i32* %5, align 4
  %36 = icmp slt i32 %34, %35
  br i1 %36, label %37, label %58

37:                                               ; preds = %33
  store i32 0, i32* %3, align 4
  br label %38

38:                                               ; preds = %51, %37
  %39 = load i32, i32* %3, align 4
  %40 = load i32, i32* %4, align 4
  %41 = icmp slt i32 %39, %40
  br i1 %41, label %42, label %54

42:                                               ; preds = %38
  %43 = load i32, i32* %2, align 4
  %44 = sext i32 %43 to i64
  %45 = getelementptr inbounds [100 x [100 x i32**]], [100 x [100 x i32**]]* %1, i64 0, i64 %44
  %46 = load i32, i32* %3, align 4
  %47 = sext i32 %46 to i64
  %48 = getelementptr inbounds [100 x i32**], [100 x i32**]* %45, i64 0, i64 %47
  %49 = load i32**, i32*** %48, align 8
  %50 = call i32 (i8*, ...) @__isoc99_scanf(i8* getelementptr inbounds ([3 x i8], [3 x i8]* @.str.1, i64 0, i64 0), i32** %49)
  br label %51

51:                                               ; preds = %42
  %52 = load i32, i32* %3, align 4
  %53 = add nsw i32 %52, 1
  store i32 %53, i32* %3, align 4
  br label %38

54:                                               ; preds = %38
  br label %55

55:                                               ; preds = %54
  %56 = load i32, i32* %2, align 4
  %57 = add nsw i32 %56, 1
  store i32 %57, i32* %2, align 4
  br label %33

58:                                               ; preds = %33
  %59 = load i32, i32* %4, align 4
  %60 = load i32, i32* %5, align 4
  %61 = add nsw i32 %59, %60
  %62 = sub nsw i32 %61, 1
  store i32 %62, i32* %7, align 4
  store i32 0, i32* %2, align 4
  br label %63

63:                                               ; preds = %104, %58
  %64 = load i32, i32* %2, align 4
  %65 = load i32, i32* %7, align 4
  %66 = add nsw i32 %65, 1
  %67 = icmp sle i32 %64, %66
  br i1 %67, label %68, label %107

68:                                               ; preds = %63
  store i32 0, i32* %3, align 4
  br label %69

69:                                               ; preds = %100, %68
  %70 = load i32, i32* %3, align 4
  %71 = load i32, i32* %5, align 4
  %72 = icmp slt i32 %70, %71
  br i1 %72, label %73, label %103

73:                                               ; preds = %69
  store i32 0, i32* %6, align 4
  br label %74

74:                                               ; preds = %96, %73
  %75 = load i32, i32* %6, align 4
  %76 = load i32, i32* %4, align 4
  %77 = icmp slt i32 %75, %76
  br i1 %77, label %78, label %99

78:                                               ; preds = %74
  %79 = load i32, i32* %3, align 4
  %80 = load i32, i32* %6, align 4
  %81 = add nsw i32 %79, %80
  %82 = load i32, i32* %2, align 4
  %83 = icmp ne i32 %81, %82
  br i1 %83, label %84, label %85

84:                                               ; preds = %78
  br label %96

85:                                               ; preds = %78
  %86 = load i32, i32* %3, align 4
  %87 = sext i32 %86 to i64
  %88 = getelementptr inbounds [100 x [100 x i32**]], [100 x [100 x i32**]]* %1, i64 0, i64 %87
  %89 = load i32, i32* %6, align 4
  %90 = sext i32 %89 to i64
  %91 = getelementptr inbounds [100 x i32**], [100 x i32**]* %88, i64 0, i64 %90
  %92 = load i32**, i32*** %91, align 8
  %93 = load i32*, i32** %92, align 8
  %94 = call i32 (i8*, ...) @printf(i8* getelementptr inbounds ([4 x i8], [4 x i8]* @.str.2, i64 0, i64 0), i32* %93)
  br label %95

95:                                               ; preds = %85
  br label %96

96:                                               ; preds = %95, %84
  %97 = load i32, i32* %6, align 4
  %98 = add nsw i32 %97, 1
  store i32 %98, i32* %6, align 4
  br label %74

99:                                               ; preds = %74
  br label %100

100:                                              ; preds = %99
  %101 = load i32, i32* %3, align 4
  %102 = add nsw i32 %101, 1
  store i32 %102, i32* %3, align 4
  br label %69

103:                                              ; preds = %69
  br label %104

104:                                              ; preds = %103
  %105 = load i32, i32* %2, align 4
  %106 = add nsw i32 %105, 1
  store i32 %106, i32* %2, align 4
  br label %63

107:                                              ; preds = %63
  ret void
}

declare dso_local i32 @__isoc99_scanf(i8*, ...) #1

; Function Attrs: nounwind
declare dso_local noalias i8* @malloc(i64) #2

declare dso_local i32 @printf(i8*, ...) #1


!llvm.module.flags = !{!0}
!llvm.ident = !{!1}

!0 = !{i32 1, !"wchar_size", i32 4}
!1 = !{!"clang version 10.0.0-4ubuntu1 "}
